target datalayout = "e-m:e-p270:32:32-p271:32:32-p272:64:64-i64:64-i128:128-f80:128-n8:16:32:64-S128"
target triple = "x86_64-pc-linux-gnu"

%struct.pos = type { [4 x [4 x i16]], [4 x i16], [4 x [4 x i8]], [4 x i32], [50 x [4 x i16]], [50 x i32], [50 x %struct.moveType], i32, i32, [4 x %struct.highCardType], [4 x %struct.highCardType] }
%struct.moveType = type { i32, i32, i32, i32 }
%struct.highCardType = type { i32, i32 }

@bitMapRank = external global [16 x i16], align 16
@_ZL9handDelta = internal constant [4 x i32] [i32 256, i32 16, i32 1, i32 0], align 16

; Function Attrs: mustprogress nounwind uwtable
define void @_Z5Undo3P3posiRK8moveType(ptr noundef %0, i32 noundef %1, ptr noundef nonnull align 4 dereferenceable(16) %2) #5 {
  %4 = alloca ptr, align 8
  %5 = alloca i32, align 4
  %6 = alloca ptr, align 8
  %7 = alloca i32, align 4
  %8 = alloca i32, align 4
  %9 = alloca i32, align 4
  store ptr %0, ptr %4, align 8
  store i32 %1, ptr %5, align 4
  store ptr %2, ptr %6, align 8
  %10 = load ptr, ptr %4, align 8
  %11 = getelementptr inbounds nuw %struct.pos, ptr %10, i32 0, i32 5
  %12 = load i32, ptr %5, align 4
  %13 = sext i32 %12 to i64
  %14 = getelementptr inbounds [50 x i32], ptr %11, i64 0, i64 %13
  %15 = load i32, ptr %14, align 4
  %16 = add nsw i32 %15, 2
  %17 = and i32 %16, 3
  store i32 %17, ptr %7, align 4
  %18 = load ptr, ptr %6, align 8
  %19 = getelementptr inbounds nuw %struct.moveType, ptr %18, i32 0, i32 0
  %20 = load i32, ptr %19, align 4
  store i32 %20, ptr %8, align 4
  %21 = load ptr, ptr %6, align 8
  %22 = getelementptr inbounds nuw %struct.moveType, ptr %21, i32 0, i32 1
  %23 = load i32, ptr %22, align 4
  store i32 %23, ptr %9, align 4
  %24 = load i32, ptr %9, align 4
  %25 = sext i32 %24 to i64
  %26 = getelementptr inbounds [16 x i16], ptr @bitMapRank, i64 0, i64 %25
  %27 = load i16, ptr %26, align 2
  %28 = zext i16 %27 to i32
  %29 = load ptr, ptr %4, align 8
  %30 = getelementptr inbounds nuw %struct.pos, ptr %29, i32 0, i32 0
  %31 = load i32, ptr %7, align 4
  %32 = sext i32 %31 to i64
  %33 = getelementptr inbounds [4 x [4 x i16]], ptr %30, i64 0, i64 %32
  %34 = load i32, ptr %8, align 4
  %35 = sext i32 %34 to i64
  %36 = getelementptr inbounds [4 x i16], ptr %33, i64 0, i64 %35
  %37 = load i16, ptr %36, align 2
  %38 = zext i16 %37 to i32
  %39 = or i32 %38, %28
  %40 = trunc i32 %39 to i16
  store i16 %40, ptr %36, align 2
  %41 = load i32, ptr %9, align 4
  %42 = sext i32 %41 to i64
  %43 = getelementptr inbounds [16 x i16], ptr @bitMapRank, i64 0, i64 %42
  %44 = load i16, ptr %43, align 2
  %45 = zext i16 %44 to i32
  %46 = load ptr, ptr %4, align 8
  %47 = getelementptr inbounds nuw %struct.pos, ptr %46, i32 0, i32 1
  %48 = load i32, ptr %8, align 4
  %49 = sext i32 %48 to i64
  %50 = getelementptr inbounds [4 x i16], ptr %47, i64 0, i64 %49
  %51 = load i16, ptr %50, align 2
  %52 = zext i16 %51 to i32
  %53 = or i32 %52, %45
  %54 = trunc i32 %53 to i16
  store i16 %54, ptr %50, align 2
  %55 = load i32, ptr %8, align 4
  %56 = sext i32 %55 to i64
  %57 = getelementptr inbounds [4 x i32], ptr @_ZL9handDelta, i64 0, i64 %56
  %58 = load i32, ptr %57, align 4
  %59 = load ptr, ptr %4, align 8
  %60 = getelementptr inbounds nuw %struct.pos, ptr %59, i32 0, i32 3
  %61 = load i32, ptr %7, align 4
  %62 = sext i32 %61 to i64
  %63 = getelementptr inbounds [4 x i32], ptr %60, i64 0, i64 %62
  %64 = load i32, ptr %63, align 4
  %65 = add nsw i32 %64, %58
  store i32 %65, ptr %63, align 4
  %66 = load ptr, ptr %4, align 8
  %67 = getelementptr inbounds nuw %struct.pos, ptr %66, i32 0, i32 2
  %68 = load i32, ptr %7, align 4
  %69 = sext i32 %68 to i64
  %70 = getelementptr inbounds [4 x [4 x i8]], ptr %67, i64 0, i64 %69
  %71 = load i32, ptr %8, align 4
  %72 = sext i32 %71 to i64
  %73 = getelementptr inbounds [4 x i8], ptr %70, i64 0, i64 %72
  %74 = load i8, ptr %73, align 1
  %75 = add i8 %74, 1
  store i8 %75, ptr %73, align 1
  ret void
}